; Function Attrs: nounwind uwtable
define void @Abc_NtkTimeSetDefaultInputDrive(ptr noundef captures(none) %0, float noundef %1, float noundef %2) local_unnamed_addr #3 {
  %4 = getelementptr inbounds nuw i8, ptr %0, i64 264
  %5 = load ptr, ptr %4, align 8
  %6 = icmp eq ptr %5, null
  br i1 %6, label %7, label %9

7:                                                ; preds = %3
  %8 = tail call fastcc ptr @Abc_ManTimeStart(ptr noundef nonnull %0)
  store ptr %8, ptr %4, align 8
  br label %9

9:                                                ; preds = %7, %3
  %10 = phi ptr [ %8, %7 ], [ %5, %3 ]
  %11 = getelementptr inbounds nuw i8, ptr %10, i64 32
  store float %1, ptr %11, align 8
  %12 = load ptr, ptr %4, align 8
  %13 = getelementptr inbounds nuw i8, ptr %12, i64 36
  store float %2, ptr %13, align 4
  %14 = load ptr, ptr %4, align 8
  %15 = getelementptr inbounds nuw i8, ptr %14, i64 48
  %16 = load ptr, ptr %15, align 8
  %.not = icmp eq ptr %16, null
  br i1 %.not, label %.loopexit, label %.preheader

.preheader:                                       ; preds = %9
  %17 = getelementptr i8, ptr %0, i64 56
  %.val17 = load ptr, ptr %17, align 8
  %18 = getelementptr i8, ptr %.val17, i64 4
  %.val.val18 = load i32, ptr %18, align 4
  %19 = icmp sgt i32 %.val.val18, 0
  br i1 %19, label %.lr.ph, label %.loopexit

.lr.ph:                                           ; preds = %.preheader, %33
  %.val21 = phi ptr [ %.val, %33 ], [ %.val17, %.preheader ]
  %indvars.iv = phi i64 [ %indvars.iv.next, %33 ], [ 0, %.preheader ]
  %20 = load ptr, ptr %4, align 8
  %21 = getelementptr inbounds nuw i8, ptr %20, i64 48
  %22 = load ptr, ptr %21, align 8
  %23 = getelementptr inbounds nuw %struct.Abc_Time_t_, ptr %22, i64 %indvars.iv
  %24 = load float, ptr %23, align 4
  %25 = fcmp oeq float %24, 0.000000e+00
  br i1 %25, label %26, label %33

26:                                               ; preds = %.lr.ph
  %27 = getelementptr inbounds nuw i8, ptr %23, i64 4
  %28 = load float, ptr %27, align 4
  %29 = fcmp oeq float %28, 0.000000e+00
  br i1 %29, label %30, label %33

30:                                               ; preds = %26
  %31 = getelementptr inbounds nuw i8, ptr %20, i64 32
  %32 = load i64, ptr %31, align 8
  store i64 %32, ptr %23, align 4
  %.val.pre = load ptr, ptr %17, align 8
  br label %33

33:                                               ; preds = %.lr.ph, %26, %30
  %.val = phi ptr [ %.val21, %.lr.ph ], [ %.val21, %26 ], [ %.val.pre, %30 ]
  %indvars.iv.next = add nuw nsw i64 %indvars.iv, 1
  %34 = getelementptr i8, ptr %.val, i64 4
  %.val.val = load i32, ptr %34, align 4
  %35 = sext i32 %.val.val to i64
  %36 = icmp slt i64 %indvars.iv.next, %35
  br i1 %36, label %.lr.ph, label %.loopexit, !llvm.loop !13

.loopexit:                                        ; preds = %33, %.preheader, %9
  ret void
}